target datalayout = "e-m:e-p270:32:32-p271:32:32-p272:64:64-i64:64-i128:128-f80:128-n8:16:32:64-S128"
target triple = "x86_64-pc-linux-gnu"

%"class.std::shared_ptr" = type { %"class.std::__shared_ptr" }
%"class.std::__shared_ptr" = type { ptr, %"class.std::__shared_count" }
%"class.std::__shared_count" = type { ptr }
%"class.open3d::core::Device" = type { i32, i32 }

@.str = private unnamed_addr constant [137 x i8] c"generated/home/dtcxzyw/WorkSpace/Projects/compilers/llvm-opt-benchmark/bench/open3d/Open3D/cpp/open3d/core/hashmap/DeviceHashBackend.cpp\00", align 1
@.str.1 = private unnamed_addr constant [21 x i8] c"Unimplemented device\00", align 1

; Function Attrs: inlinehint mustprogress nounwind ssp uwtable
define linkonce_odr noundef zeroext i1 @_ZNK6open3d4core6Device5IsCPUEv(ptr noundef nonnull align 4 dereferenceable(8) %0) #1 comdat align 2 {
  %2 = alloca ptr, align 8
  store ptr %0, ptr %2, align 8, !tbaa !17
  %3 = load ptr, ptr %2, align 8
  %4 = getelementptr inbounds nuw %"class.open3d::core::Device", ptr %3, i32 0, i32 0
  %5 = load i32, ptr %4, align 4, !tbaa !20
  %6 = icmp eq i32 %5, 0
  ret i1 %6
}

; Function Attrs: mustprogress ssp uwtable
define void @_ZN6open3d4core23CreateDeviceHashBackendElRKNS0_5DtypeERKNS0_10SizeVectorERKSt6vectorIS1_SaIS1_EERKS7_IS4_SaIS4_EERKNS0_6DeviceERKNS0_15HashBackendTypeE(ptr dead_on_unwind noalias writable sret(%"class.std::shared_ptr") align 8 %0, i64 noundef %1, ptr noundef nonnull align 8 dereferenceable(32) %2, ptr noundef nonnull align 8 dereferenceable(48) %3, ptr noundef nonnull align 8 dereferenceable(24) %4, ptr noundef nonnull align 8 dereferenceable(24) %5, ptr noundef nonnull align 4 dereferenceable(8) %6, ptr noundef nonnull align 4 dereferenceable(4) %7) #0 {
  %9 = alloca ptr, align 8
  %10 = alloca i64, align 8
  %11 = alloca ptr, align 8
  %12 = alloca ptr, align 8
  %13 = alloca ptr, align 8
  %14 = alloca ptr, align 8
  %15 = alloca ptr, align 8
  %16 = alloca ptr, align 8
  store ptr %0, ptr %9, align 8
  store i64 %1, ptr %10, align 8, !tbaa !4
  store ptr %2, ptr %11, align 8, !tbaa !8
  store ptr %3, ptr %12, align 8, !tbaa !11
  store ptr %4, ptr %13, align 8, !tbaa !13
  store ptr %5, ptr %14, align 8, !tbaa !15
  store ptr %6, ptr %15, align 8, !tbaa !17
  store ptr %7, ptr %16, align 8, !tbaa !19
  %17 = load ptr, ptr %15, align 8, !tbaa !17
  %18 = call noundef zeroext i1 @_ZNK6open3d4core6Device5IsCPUEv(ptr noundef nonnull align 4 dereferenceable(8) %17)
  br i1 %18, label %19, label %27

19:                                               ; preds = %8
  %20 = load i64, ptr %10, align 8, !tbaa !4
  %21 = load ptr, ptr %11, align 8, !tbaa !8
  %22 = load ptr, ptr %12, align 8, !tbaa !11
  %23 = load ptr, ptr %13, align 8, !tbaa !13
  %24 = load ptr, ptr %14, align 8, !tbaa !15
  %25 = load ptr, ptr %15, align 8, !tbaa !17
  %26 = load ptr, ptr %16, align 8, !tbaa !19
  call void @_ZN6open3d4core20CreateCPUHashBackendElRKNS0_5DtypeERKNS0_10SizeVectorERKSt6vectorIS1_SaIS1_EERKS7_IS4_SaIS4_EERKNS0_6DeviceERKNS0_15HashBackendTypeE(ptr dead_on_unwind writable sret(%"class.std::shared_ptr") align 8 %0, i64 noundef %20, ptr noundef nonnull align 8 dereferenceable(32) %21, ptr noundef nonnull align 8 dereferenceable(48) %22, ptr noundef nonnull align 8 dereferenceable(24) %23, ptr noundef nonnull align 8 dereferenceable(24) %24, ptr noundef nonnull align 4 dereferenceable(8) %25, ptr noundef nonnull align 4 dereferenceable(4) %26)
  ret void

27:                                               ; preds = %8
  call void @_ZN6open3d7utility6Logger9LogError_IJEEEvPKciS4_S4_DpOT_(ptr noundef @.str, i32 noundef 38, ptr noundef @__PRETTY_FUNCTION__._ZN6open3d4core23CreateDeviceHashBackendElRKNS0_5DtypeERKNS0_10SizeVectorERKSt6vectorIS1_SaIS1_EERKS7_IS4_SaIS4_EERKNS0_6DeviceERKNS0_15HashBackendTypeE, ptr noundef @.str.1) #14
  unreachable
}