; Function Attrs: mustprogress ssp uwtable
define void @_ZN6open3d4core23CreateDeviceHashBackendElRKNS0_5DtypeERKNS0_10SizeVectorERKSt6vectorIS1_SaIS1_EERKS7_IS4_SaIS4_EERKNS0_6DeviceERKNS0_15HashBackendTypeE(ptr dead_on_unwind noalias writable sret(%"class.std::shared_ptr") align 8 %0, i64 noundef %1, ptr noundef nonnull align 8 dereferenceable(32) %2, ptr noundef nonnull align 8 dereferenceable(48) %3, ptr noundef nonnull align 8 dereferenceable(24) %4, ptr noundef nonnull align 8 dereferenceable(24) %5, ptr noundef nonnull align 4 dereferenceable(8) %6, ptr noundef nonnull align 4 dereferenceable(4) %7) local_unnamed_addr #0 {
  %9 = load i32, ptr %6, align 4, !tbaa !4
  %10 = icmp eq i32 %9, 0
  br i1 %10, label %11, label %12

11:                                               ; preds = %8
  tail call void @_ZN6open3d4core20CreateCPUHashBackendElRKNS0_5DtypeERKNS0_10SizeVectorERKSt6vectorIS1_SaIS1_EERKS7_IS4_SaIS4_EERKNS0_6DeviceERKNS0_15HashBackendTypeE(ptr dead_on_unwind writable sret(%"class.std::shared_ptr") align 8 %0, i64 noundef %1, ptr noundef nonnull align 8 dereferenceable(32) %2, ptr noundef nonnull align 8 dereferenceable(48) %3, ptr noundef nonnull align 8 dereferenceable(24) %4, ptr noundef nonnull align 8 dereferenceable(24) %5, ptr noundef nonnull align 4 dereferenceable(8) %6, ptr noundef nonnull align 4 dereferenceable(4) %7)
  ret void

12:                                               ; preds = %8
  tail call void @_ZN6open3d7utility6Logger9LogError_IJEEEvPKciS4_S4_DpOT_(ptr noundef nonnull @.str, i32 noundef 38, ptr noundef nonnull @__PRETTY_FUNCTION__._ZN6open3d4core23CreateDeviceHashBackendElRKNS0_5DtypeERKNS0_10SizeVectorERKSt6vectorIS1_SaIS1_EERKS7_IS4_SaIS4_EERKNS0_6DeviceERKNS0_15HashBackendTypeE, ptr noundef nonnull @.str.1) #10
  unreachable
}